target datalayout = "e-m:e-p270:32:32-p271:32:32-p272:64:64-i64:64-i128:128-f80:128-n8:16:32:64-S128"
target triple = "x86_64-pc-linux-gnu"

; Function Attrs: nounwind uwtable
define zeroext i8 @stbiw__paeth(i32 noundef %0, i32 noundef %1, i32 noundef %2) #0 {
  %4 = alloca i8, align 1
  %5 = alloca i32, align 4
  %6 = alloca i32, align 4
  %7 = alloca i32, align 4
  %8 = alloca i32, align 4
  %9 = alloca i32, align 4
  %10 = alloca i32, align 4
  %11 = alloca i32, align 4
  %12 = alloca i32, align 4
  store i32 %0, ptr %5, align 4, !tbaa !3
  store i32 %1, ptr %6, align 4, !tbaa !3
  store i32 %2, ptr %7, align 4, !tbaa !3
  call void @llvm.lifetime.start.p0(i64 4, ptr %8) #11
  %13 = load i32, ptr %5, align 4, !tbaa !3
  %14 = load i32, ptr %6, align 4, !tbaa !3
  %15 = add nsw i32 %13, %14
  %16 = load i32, ptr %7, align 4, !tbaa !3
  %17 = sub nsw i32 %15, %16
  store i32 %17, ptr %8, align 4, !tbaa !3
  call void @llvm.lifetime.start.p0(i64 4, ptr %9) #11
  %18 = load i32, ptr %8, align 4, !tbaa !3
  %19 = load i32, ptr %5, align 4, !tbaa !3
  %20 = sub nsw i32 %18, %19
  %21 = call i32 @llvm.abs.i32(i32 %20, i1 true)
  store i32 %21, ptr %9, align 4, !tbaa !3
  call void @llvm.lifetime.start.p0(i64 4, ptr %10) #11
  %22 = load i32, ptr %8, align 4, !tbaa !3
  %23 = load i32, ptr %6, align 4, !tbaa !3
  %24 = sub nsw i32 %22, %23
  %25 = call i32 @llvm.abs.i32(i32 %24, i1 true)
  store i32 %25, ptr %10, align 4, !tbaa !3
  call void @llvm.lifetime.start.p0(i64 4, ptr %11) #11
  %26 = load i32, ptr %8, align 4, !tbaa !3
  %27 = load i32, ptr %7, align 4, !tbaa !3
  %28 = sub nsw i32 %26, %27
  %29 = call i32 @llvm.abs.i32(i32 %28, i1 true)
  store i32 %29, ptr %11, align 4, !tbaa !3
  %30 = load i32, ptr %9, align 4, !tbaa !3
  %31 = load i32, ptr %10, align 4, !tbaa !3
  %32 = icmp sle i32 %30, %31
  br i1 %32, label %33, label %41

33:                                               ; preds = %3
  %34 = load i32, ptr %9, align 4, !tbaa !3
  %35 = load i32, ptr %11, align 4, !tbaa !3
  %36 = icmp sle i32 %34, %35
  br i1 %36, label %37, label %41

37:                                               ; preds = %33
  %38 = load i32, ptr %5, align 4, !tbaa !3
  %39 = and i32 %38, 255
  %40 = trunc i32 %39 to i8
  store i8 %40, ptr %4, align 1
  store i32 1, ptr %12, align 4
  br label %53

41:                                               ; preds = %33, %3
  %42 = load i32, ptr %10, align 4, !tbaa !3
  %43 = load i32, ptr %11, align 4, !tbaa !3
  %44 = icmp sle i32 %42, %43
  br i1 %44, label %45, label %49

45:                                               ; preds = %41
  %46 = load i32, ptr %6, align 4, !tbaa !3
  %47 = and i32 %46, 255
  %48 = trunc i32 %47 to i8
  store i8 %48, ptr %4, align 1
  store i32 1, ptr %12, align 4
  br label %53

49:                                               ; preds = %41
  %50 = load i32, ptr %7, align 4, !tbaa !3
  %51 = and i32 %50, 255
  %52 = trunc i32 %51 to i8
  store i8 %52, ptr %4, align 1
  store i32 1, ptr %12, align 4
  br label %53

53:                                               ; preds = %49, %45, %37
  call void @llvm.lifetime.end.p0(i64 4, ptr %11) #11
  call void @llvm.lifetime.end.p0(i64 4, ptr %10) #11
  call void @llvm.lifetime.end.p0(i64 4, ptr %9) #11
  call void @llvm.lifetime.end.p0(i64 4, ptr %8) #11
  %54 = load i8, ptr %4, align 1
  ret i8 %54
}