; Function Attrs: mustprogress nofree norecurse nosync nounwind willreturn memory(none) uwtable
define zeroext i8 @stbiw__paeth(i32 noundef %0, i32 noundef %1, i32 noundef %2) local_unnamed_addr #19 {
  %4 = add nsw i32 %1, %0
  %5 = sub i32 %4, %2
  %6 = sub nsw i32 %5, %0
  %7 = tail call i32 @llvm.abs.i32(i32 %6, i1 true)
  %8 = sub nsw i32 %5, %1
  %9 = tail call i32 @llvm.abs.i32(i32 %8, i1 true)
  %10 = sub nsw i32 %5, %2
  %11 = tail call i32 @llvm.abs.i32(i32 %10, i1 true)
  %.not = icmp samesign ugt i32 %7, %9
  %.not20 = icmp samesign ugt i32 %7, %11
  %or.cond = select i1 %.not, i1 true, i1 %.not20
  %.not21 = icmp samesign ugt i32 %9, %11
  %. = select i1 %.not21, i32 %2, i32 %1
  %.0.in = select i1 %or.cond, i32 %., i32 %0
  %.0 = trunc i32 %.0.in to i8
  ret i8 %.0
}